; Function Attrs: mustprogress uwtable
define void @_ZN5faiss10IndexNSGPQ5trainElPKf(ptr nocapture noundef nonnull align 8 dereferenceable(5132) %0, i64 noundef %1, ptr noundef %2) unnamed_addr #1 align 2 {
  tail call void @_ZN5faiss8IndexNSG5trainElPKf(ptr noundef nonnull align 8 dereferenceable(5132) %0, i64 noundef %1, ptr noundef %2)
  %4 = getelementptr inbounds i8, ptr %0, i64 5096
  %5 = load ptr, ptr %4, align 8, !nonnull !12, !noundef !12
  %6 = tail call ptr @__dynamic_cast(ptr nonnull %5, ptr nonnull @_ZTIN5faiss5IndexE, ptr nonnull @_ZTIN5faiss7IndexPQE, i64 0) #8
  %7 = getelementptr inbounds i8, ptr %6, i64 72
  tail call void @_ZN5faiss16ProductQuantizer17compute_sdc_tableEv(ptr noundef nonnull align 8 dereferenceable(208) %7)
  ret void
}